; Function Attrs: mustprogress null_pointer_is_valid sspstrong uwtable
define void @_ZN11CaptureFile15fileDisplayNameEv(ptr dead_on_unwind noalias writable sret(%class.QString) align 8 initializes((0, 24)) %0, ptr noundef readonly align 8 captures(none) dereferenceable_or_null(48) %1) local_unnamed_addr #5 align 2 personality ptr @__gxx_personality_v0 {
  %3 = alloca %class.QString, align 8
  tail call void @llvm.memset.p0.i64(ptr noundef align 8 dereferenceable(24) dereferenceable_or_null(24) %0, i8 0, i64 24, i1 false)
  %4 = getelementptr inbounds nuw i8, ptr %1, i64 16
  %5 = load ptr, ptr %4, align 8
  %.not.i = icmp eq ptr %5, null
  br i1 %.not.i, label %_ZNK11CaptureFile7isValidEv.exit, label %6

6:                                                ; preds = %2
  %7 = getelementptr inbounds nuw i8, ptr %5, i64 8
  %8 = load i32, ptr %7, align 8
  %switch.i = icmp ult i32 %8, 2
  br i1 %switch.i, label %_ZNK11CaptureFile7isValidEv.exit, label %9

9:                                                ; preds = %6
  %10 = invoke ptr @cf_get_display_name(ptr noundef nonnull %5)
          to label %11 unwind label %21

11:                                               ; preds = %9
  call void @llvm.lifetime.start.p0(i64 24, ptr nonnull %3) #20
  %.not.i.i = icmp eq ptr %10, null
  br i1 %.not.i.i, label %_ZN14QByteArrayViewC2IPKcTnNSt9enable_ifIXsr9QtPrivate28IsCompatibleByteArrayPointerIT_EE5valueEbE4typeELb1EEERKS4_.exit.i, label %.split.i.i

.split.i.i:                                       ; preds = %11
  %12 = tail call noundef i64 @strlen(ptr noundef nonnull dereferenceable(1) %10) #20
  br label %_ZN14QByteArrayViewC2IPKcTnNSt9enable_ifIXsr9QtPrivate28IsCompatibleByteArrayPointerIT_EE5valueEbE4typeELb1EEERKS4_.exit.i

_ZN14QByteArrayViewC2IPKcTnNSt9enable_ifIXsr9QtPrivate28IsCompatibleByteArrayPointerIT_EE5valueEbE4typeELb1EEERKS4_.exit.i: ; preds = %.split.i.i, %11
  %.sink5.i.i = phi i64 [ %12, %.split.i.i ], [ 0, %11 ]
  invoke void @_ZN7QString8fromUtf8E14QByteArrayView(ptr dead_on_unwind nonnull writable sret(%class.QString) align 8 %3, i64 %.sink5.i.i, ptr %10)
          to label %13 unwind label %21

13:                                               ; preds = %_ZN14QByteArrayViewC2IPKcTnNSt9enable_ifIXsr9QtPrivate28IsCompatibleByteArrayPointerIT_EE5valueEbE4typeELb1EEERKS4_.exit.i
  %14 = load ptr, ptr %3, align 8
  store ptr %14, ptr %0, align 8
  store ptr null, ptr %3, align 8
  %15 = getelementptr inbounds nuw i8, ptr %0, i64 8
  %16 = getelementptr inbounds nuw i8, ptr %3, i64 8
  %17 = load ptr, ptr %16, align 8
  store ptr %17, ptr %15, align 8
  store ptr null, ptr %16, align 8
  %18 = getelementptr inbounds nuw i8, ptr %0, i64 16
  %19 = getelementptr inbounds nuw i8, ptr %3, i64 16
  %20 = load i64, ptr %19, align 8
  store i64 %20, ptr %18, align 8
  call void @llvm.lifetime.end.p0(i64 24, ptr nonnull %3) #20
  invoke void @g_free(ptr noundef %10)
          to label %_ZN7QStringD2Ev.exit unwind label %21

21:                                               ; preds = %_ZN14QByteArrayViewC2IPKcTnNSt9enable_ifIXsr9QtPrivate28IsCompatibleByteArrayPointerIT_EE5valueEbE4typeELb1EEERKS4_.exit.i, %13, %9
  %22 = landingpad { ptr, i32 }
          cleanup
  call void @_ZN7QStringD2Ev(ptr noundef align 8 dereferenceable_or_null(24) %0) #20
  resume { ptr, i32 } %22

_ZNK11CaptureFile7isValidEv.exit:                 ; preds = %6, %2
  tail call void @llvm.memset.p0.i64(ptr noundef align 8 dereferenceable(24) %0, i8 0, i64 24, i1 false)
  br label %_ZN7QStringD2Ev.exit

_ZN7QStringD2Ev.exit:                             ; preds = %_ZNK11CaptureFile7isValidEv.exit, %13
  ret void
}